ccopy_reg
_reconstructor
p0
(cdedupe.datamodel
DataModel
p1
c__builtin__
dict
p2
(dp3
S'fields'
p4
(lp5
g0
(cdedupe.fieldclasses
CustomType
p6
c__builtin__
object
p7
Ntp8
Rp9
(dp10
S'name'
p11
S'(price: Custom, priceComparator)'
p12
sS'comparator'
p13
c__main__
priceComparator
p14
sS'weight'
p15
F0.1947612464427948
sS'field'
p16
S'price'
p17
sS'has_missing'
p18
I01
sS'predicates'
p19
(lp20
sbag0
(g6
g7
Ntp21
Rp22
(dp23
g11
S'(description: Custom, descComparator)'
p24
sg13
c__main__
descComparator
p25
sg15
F0.5730140209197998
sg16
S'description'
p26
sg18
I01
sg19
(lp27
sbag0
(cdedupe.fieldclasses
StringType
p28
g7
Ntp29
Rp30
(dp31
g19
(lp32
g0
(cdedupe.predicates
SimplePredicate
p33
g7
Ntp34
Rp35
(dp36
S'__name__'
p37
S'(wholeFieldPredicate, title)'
p38
sS'func'
p39
cdedupe.predicates
wholeFieldPredicate
p40
sg16
S'title'
p41
sbag0
(g33
g7
Ntp42
Rp43
(dp44
g37
S'(tokenFieldPredicate, title)'
p45
sg39
cdedupe.predicates
tokenFieldPredicate
p46
sg16
g41
sbag0
(g33
g7
Ntp47
Rp48
(dp49
g37
S'(firstTokenPredicate, title)'
p50
sg39
cdedupe.predicates
firstTokenPredicate
p51
sg16
g41
sbag0
(g33
g7
Ntp52
Rp53
(dp54
g37
S'(commonIntegerPredicate, title)'
p55
sg39
cdedupe.predicates
commonIntegerPredicate
p56
sg16
g41
sbag0
(g33
g7
Ntp57
Rp58
(dp59
g37
S'(nearIntegersPredicate, title)'
p60
sg39
cdedupe.predicates
nearIntegersPredicate
p61
sg16
g41
sbag0
(g33
g7
Ntp62
Rp63
(dp64
g37
S'(firstIntegerPredicate, title)'
p65
sg39
cdedupe.predicates
firstIntegerPredicate
p66
sg16
g41
sbag0
(g33
g7
Ntp67
Rp68
(dp69
g37
S'(sameThreeCharStartPredicate, title)'
p70
sg39
cdedupe.predicates
sameThreeCharStartPredicate
p71
sg16
g41
sbag0
(g33
g7
Ntp72
Rp73
(dp74
g37
S'(sameFiveCharStartPredicate, title)'
p75
sg39
cdedupe.predicates
sameFiveCharStartPredicate
p76
sg16
g41
sbag0
(g33
g7
Ntp77
Rp78
(dp79
g37
S'(sameSevenCharStartPredicate, title)'
p80
sg39
cdedupe.predicates
sameSevenCharStartPredicate
p81
sg16
g41
sbag0
(g33
g7
Ntp82
Rp83
(dp84
g37
S'(commonFourGram, title)'
p85
sg39
cdedupe.predicates
commonFourGram
p86
sg16
g41
sbag0
(g33
g7
Ntp87
Rp88
(dp89
g37
S'(commonSixGram, title)'
p90
sg39
cdedupe.predicates
commonSixGram
p91
sg16
g41
sbag0
(cdedupe.predicates
TfidfPredicate
p92
g7
Ntp93
Rp94
(dp95
S'threshold'
p96
F0.2
sg37
S'(0.2, title)'
p97
sg16
g41
sbag0
(g92
g7
Ntp98
Rp99
(dp100
g96
F0.4
sg37
S'(0.4, title)'
p101
sg16
g41
sbag0
(g92
g7
Ntp102
Rp103
(dp104
g96
F0.6
sg37
S'(0.6, title)'
p105
sg16
g41
sbag0
(g92
g7
Ntp106
Rp107
(dp108
g96
F0.8
sg37
S'(0.8, title)'
p109
sg16
g41
sbasg16
g41
sg11
S'(title: String)'
p110
sg15
F-0.8447609543800354
sg18
I00
sbag0
(g28
g7
Ntp111
Rp112
(dp113
g19
(lp114
g0
(g33
g7
Ntp115
Rp116
(dp117
g37
S'(wholeFieldPredicate, manufacturer)'
p118
sg39
g40
sg16
S'manufacturer'
p119
sbag0
(g33
g7
Ntp120
Rp121
(dp122
g37
S'(tokenFieldPredicate, manufacturer)'
p123
sg39
g46
sg16
g119
sbag0
(g33
g7
Ntp124
Rp125
(dp126
g37
S'(firstTokenPredicate, manufacturer)'
p127
sg39
g51
sg16
g119
sbag0
(g33
g7
Ntp128
Rp129
(dp130
g37
S'(commonIntegerPredicate, manufacturer)'
p131
sg39
g56
sg16
g119
sbag0
(g33
g7
Ntp132
Rp133
(dp134
g37
S'(nearIntegersPredicate, manufacturer)'
p135
sg39
g61
sg16
g119
sbag0
(g33
g7
Ntp136
Rp137
(dp138
g37
S'(firstIntegerPredicate, manufacturer)'
p139
sg39
g66
sg16
g119
sbag0
(g33
g7
Ntp140
Rp141
(dp142
g37
S'(sameThreeCharStartPredicate, manufacturer)'
p143
sg39
g71
sg16
g119
sbag0
(g33
g7
Ntp144
Rp145
(dp146
g37
S'(sameFiveCharStartPredicate, manufacturer)'
p147
sg39
g76
sg16
g119
sbag0
(g33
g7
Ntp148
Rp149
(dp150
g37
S'(sameSevenCharStartPredicate, manufacturer)'
p151
sg39
g81
sg16
g119
sbag0
(g33
g7
Ntp152
Rp153
(dp154
g37
S'(commonFourGram, manufacturer)'
p155
sg39
g86
sg16
g119
sbag0
(g33
g7
Ntp156
Rp157
(dp158
g37
S'(commonSixGram, manufacturer)'
p159
sg39
g91
sg16
g119
sbag0
(g92
g7
Ntp160
Rp161
(dp162
g96
F0.2
sg37
S'(0.2, manufacturer)'
p163
sg16
g119
sbag0
(g92
g7
Ntp164
Rp165
(dp166
g96
F0.4
sg37
S'(0.4, manufacturer)'
p167
sg16
g119
sbag0
(g92
g7
Ntp168
Rp169
(dp170
g96
F0.6
sg37
S'(0.6, manufacturer)'
p171
sg16
g119
sbag0
(g92
g7
Ntp172
Rp173
(dp174
g96
F0.8
sg37
S'(0.8, manufacturer)'
p175
sg16
g119
sbasg16
g119
sg11
S'(manufacturer: String)'
p176
sg15
F-0.15518200397491455
sg18
I01
sbag0
(cdedupe.fieldclasses
MissingDataType
p177
g7
Ntp178
Rp179
(dp180
g18
I00
sg11
S'((manufacturer: String): Not Missing)'
p181
sg15
F0.02082625776529312
sbag0
(g177
g7
Ntp182
Rp183
(dp184
g18
I00
sg11
S'((price: Custom, priceComparator): Not Missing)'
p185
sg15
F0.02082625776529312
sbag0
(g177
g7
Ntp186
Rp187
(dp188
g18
I00
sg11
S'((description: Custom, descComparator): Not Missing)'
p189
sg15
F-0.28210675716400146
sbasS'bias'
p190
F0.3563317833432881
stp191
Rp192
(dp193
S'total_fields'
p194
I7
sb.(lp0
ccopy_reg
_reconstructor
p1
(cdedupe.predicates
CompoundPredicate
p2
c__builtin__
object
p3
Ntp4
Rp5
(dp6
S'predicates'
p7
(g1
(cdedupe.predicates
TfidfPredicate
p8
g3
Ntp9
Rp10
(dp11
S'threshold'
p12
F0.6
sS'__name__'
p13
S'(0.6, title)'
p14
sS'field'
p15
S'title'
p16
sbg1
(g8
g3
Ntp17
Rp18
(dp19
g12
F0.8
sg13
S'(0.8, title)'
p20
sg15
g16
sbtp21
sg13
V(TfidfPredicate: (0.6, title), TfidfPredicate: (0.8, title))
p22
sbag1
(g2
g3
Ntp23
Rp24
(dp25
g7
(g1
(cdedupe.predicates
SimplePredicate
p26
g3
Ntp27
Rp28
(dp29
g13
S'(sameFiveCharStartPredicate, title)'
p30
sS'func'
p31
cdedupe.predicates
sameFiveCharStartPredicate
p32
sg15
g16
sbg10
tp33
sg13
V(SimplePredicate: (sameFiveCharStartPredicate, title), TfidfPredicate: (0.6, title))
p34
sbag1
(g2
g3
Ntp35
Rp36
(dp37
g7
(g1
(g26
g3
Ntp38
Rp39
(dp40
g13
S'(sameSevenCharStartPredicate, title)'
p41
sg31
cdedupe.predicates
sameSevenCharStartPredicate
p42
sg15
g16
sbg1
(g26
g3
Ntp43
Rp44
(dp45
g13
S'(commonIntegerPredicate, title)'
p46
sg31
cdedupe.predicates
commonIntegerPredicate
p47
sg15
g16
sbtp48
sg13
V(SimplePredicate: (sameSevenCharStartPredicate, title), SimplePredicate: (commonIntegerPredicate, title))
p49
sbag1
(g2
g3
Ntp50
Rp51
(dp52
g7
(g39
g1
(g8
g3
Ntp53
Rp54
(dp55
g12
F0.4
sg13
S'(0.4, title)'
p56
sg15
g16
sbtp57
sg13
V(SimplePredicate: (sameSevenCharStartPredicate, title), TfidfPredicate: (0.4, title))
p58
sba.(dp0
S'title'
p1
c__builtin__
set
p2
((lp3
tp4
Rp5
sS'manufacturer'
p6
g2
((lp7
tp8
Rp9
s.